target datalayout = "e-m:e-p270:32:32-p271:32:32-p272:64:64-i64:64-i128:128-f80:128-n8:16:32:64-S128"
target triple = "x86_64-pc-linux-gnu"

%struct.Abc_Ntk_t_ = type { i32, i32, ptr, ptr, ptr, ptr, ptr, ptr, ptr, ptr, ptr, ptr, ptr, [11 x i32], i32, i32, i32, i32, ptr, i32, ptr, ptr, i32, i32, i32, double, i32, %struct.Vec_Int_t_, ptr, ptr, ptr, ptr, ptr, float, i32, ptr, ptr, ptr, ptr, ptr, ptr, ptr, ptr, ptr, ptr, ptr, ptr, ptr, ptr, ptr, ptr, ptr, ptr, ptr, ptr, ptr, ptr }
%struct.Vec_Int_t_ = type { i32, i32, ptr }
%struct.Abc_Obj_t_ = type { ptr, ptr, i32, i32, %struct.Vec_Int_t_, %struct.Vec_Int_t_, %union.anon, %union.anon.0 }
%union.anon = type { ptr }
%union.anon.0 = type { ptr }
%struct.Vec_Ptr_t_ = type { i32, i32, ptr }

@.str.57 = private unnamed_addr constant [36 x i8] c"01001011100000000011010110101000000\00", align 1
@.str.58 = private unnamed_addr constant [36 x i8] c"11001101011101011111110100100010001\00", align 1
@.str.59 = private unnamed_addr constant [12 x i8] c"Value = %d\0A\00", align 1

; Function Attrs: inlinehint nounwind uwtable
define internal ptr @Vec_PtrEntry(ptr noundef %0, i32 noundef %1) #4 {
  %3 = alloca ptr, align 8
  %4 = alloca i32, align 4
  store ptr %0, ptr %3, align 8, !tbaa !32
  store i32 %1, ptr %4, align 4, !tbaa !8
  %5 = load ptr, ptr %3, align 8, !tbaa !32
  %6 = getelementptr inbounds nuw %struct.Vec_Ptr_t_, ptr %5, i32 0, i32 2
  %7 = load ptr, ptr %6, align 8, !tbaa !52
  %8 = load i32, ptr %4, align 4, !tbaa !8
  %9 = sext i32 %8 to i64
  %10 = getelementptr inbounds ptr, ptr %7, i64 %9
  %11 = load ptr, ptr %10, align 8, !tbaa !55
  ret ptr %11
}

; Function Attrs: inlinehint nounwind uwtable
define internal i32 @Abc_NtkPoNum(ptr noundef %0) #4 {
  %2 = alloca ptr, align 8
  store ptr %0, ptr %2, align 8, !tbaa !3
  %3 = load ptr, ptr %2, align 8, !tbaa !3
  %4 = getelementptr inbounds nuw %struct.Abc_Ntk_t_, ptr %3, i32 0, i32 7
  %5 = load ptr, ptr %4, align 8, !tbaa !49
  %6 = call i32 @Vec_PtrSize(ptr noundef %5)
  ret i32 %6
}

; Function Attrs: inlinehint nounwind uwtable
define internal i32 @Abc_ObjIsLatch(ptr noundef %0) #4 {
  %2 = alloca ptr, align 8
  store ptr %0, ptr %2, align 8, !tbaa !30
  %3 = load ptr, ptr %2, align 8, !tbaa !30
  %4 = getelementptr inbounds nuw %struct.Abc_Obj_t_, ptr %3, i32 0, i32 3
  %5 = load i32, ptr %4, align 4
  %6 = and i32 %5, 15
  %7 = icmp eq i32 %6, 8
  %8 = zext i1 %7 to i32
  ret i32 %8
}

; Function Attrs: inlinehint nounwind uwtable
define internal ptr @Abc_NtkBox(ptr noundef %0, i32 noundef %1) #4 {
  %3 = alloca ptr, align 8
  %4 = alloca i32, align 4
  store ptr %0, ptr %3, align 8, !tbaa !3
  store i32 %1, ptr %4, align 4, !tbaa !8
  %5 = load ptr, ptr %3, align 8, !tbaa !3
  %6 = getelementptr inbounds nuw %struct.Abc_Ntk_t_, ptr %5, i32 0, i32 11
  %7 = load ptr, ptr %6, align 8, !tbaa !78
  %8 = load i32, ptr %4, align 4, !tbaa !8
  %9 = call ptr @Vec_PtrEntry(ptr noundef %7, i32 noundef %8)
  ret ptr %9
}

; Function Attrs: inlinehint nounwind uwtable
define internal i32 @Vec_PtrSize(ptr noundef %0) #4 {
  %2 = alloca ptr, align 8
  store ptr %0, ptr %2, align 8, !tbaa !32
  %3 = load ptr, ptr %2, align 8, !tbaa !32
  %4 = getelementptr inbounds nuw %struct.Vec_Ptr_t_, ptr %3, i32 0, i32 1
  %5 = load i32, ptr %4, align 4, !tbaa !61
  ret i32 %5
}

; Function Attrs: inlinehint nounwind uwtable
define internal ptr @Abc_NtkPi(ptr noundef %0, i32 noundef %1) #4 {
  %3 = alloca ptr, align 8
  %4 = alloca i32, align 4
  store ptr %0, ptr %3, align 8, !tbaa !3
  store i32 %1, ptr %4, align 4, !tbaa !8
  %5 = load ptr, ptr %3, align 8, !tbaa !3
  %6 = getelementptr inbounds nuw %struct.Abc_Ntk_t_, ptr %5, i32 0, i32 6
  %7 = load ptr, ptr %6, align 8, !tbaa !63
  %8 = load i32, ptr %4, align 4, !tbaa !8
  %9 = call ptr @Vec_PtrEntry(ptr noundef %7, i32 noundef %8)
  ret ptr %9
}

; Function Attrs: inlinehint nounwind uwtable
define internal i32 @Abc_NtkPiNum(ptr noundef %0) #4 {
  %2 = alloca ptr, align 8
  store ptr %0, ptr %2, align 8, !tbaa !3
  %3 = load ptr, ptr %2, align 8, !tbaa !3
  %4 = getelementptr inbounds nuw %struct.Abc_Ntk_t_, ptr %3, i32 0, i32 6
  %5 = load ptr, ptr %4, align 8, !tbaa !63
  %6 = call i32 @Vec_PtrSize(ptr noundef %5)
  ret i32 %6
}

; Function Attrs: inlinehint nounwind uwtable
define internal i32 @Abc_NtkCiNum(ptr noundef %0) #4 {
  %2 = alloca ptr, align 8
  store ptr %0, ptr %2, align 8, !tbaa !3
  %3 = load ptr, ptr %2, align 8, !tbaa !3
  %4 = getelementptr inbounds nuw %struct.Abc_Ntk_t_, ptr %3, i32 0, i32 8
  %5 = load ptr, ptr %4, align 8, !tbaa !89
  %6 = call i32 @Vec_PtrSize(ptr noundef %5)
  ret i32 %6
}

; Function Attrs: nounwind uwtable
define void @Abc_NtkSimulteBuggyMiter(ptr noundef %0) #0 {
  %2 = alloca ptr, align 8
  %3 = alloca ptr, align 8
  %4 = alloca i32, align 4
  %5 = alloca ptr, align 8
  %6 = alloca ptr, align 8
  %7 = alloca ptr, align 8
  %8 = alloca ptr, align 8
  %9 = alloca ptr, align 8
  %10 = alloca ptr, align 8
  store ptr %0, ptr %2, align 8, !tbaa !3
  call void @llvm.lifetime.start.p0(i64 8, ptr %3) #10
  call void @llvm.lifetime.start.p0(i64 4, ptr %4) #10
  call void @llvm.lifetime.start.p0(i64 8, ptr %5) #10
  call void @llvm.lifetime.start.p0(i64 8, ptr %6) #10
  call void @llvm.lifetime.start.p0(i64 8, ptr %7) #10
  call void @llvm.lifetime.start.p0(i64 8, ptr %8) #10
  call void @llvm.lifetime.start.p0(i64 8, ptr %9) #10
  store ptr @.str.57, ptr %9, align 8, !tbaa !43
  call void @llvm.lifetime.start.p0(i64 8, ptr %10) #10
  store ptr @.str.58, ptr %10, align 8, !tbaa !43
  %11 = load ptr, ptr %2, align 8, !tbaa !3
  %12 = call i32 @Abc_NtkCiNum(ptr noundef %11)
  %13 = sext i32 %12 to i64
  %14 = mul i64 4, %13
  %15 = call noalias ptr @malloc(i64 noundef %14) #11
  store ptr %15, ptr %5, align 8, !tbaa !26
  store i32 0, ptr %4, align 4, !tbaa !8
  br label %16

16:                                               ; preds = %39, %1
  %17 = load i32, ptr %4, align 4, !tbaa !8
  %18 = load ptr, ptr %2, align 8, !tbaa !3
  %19 = call i32 @Abc_NtkPiNum(ptr noundef %18)
  %20 = icmp slt i32 %17, %19
  br i1 %20, label %21, label %25

21:                                               ; preds = %16
  %22 = load ptr, ptr %2, align 8, !tbaa !3
  %23 = load i32, ptr %4, align 4, !tbaa !8
  %24 = call ptr @Abc_NtkPi(ptr noundef %22, i32 noundef %23)
  store ptr %24, ptr %3, align 8, !tbaa !30
  br label %25

25:                                               ; preds = %21, %16
  %26 = phi i1 [ false, %16 ], [ true, %21 ]
  br i1 %26, label %27, label %42

27:                                               ; preds = %25
  %28 = load ptr, ptr %9, align 8, !tbaa !43
  %29 = load i32, ptr %4, align 4, !tbaa !8
  %30 = sext i32 %29 to i64
  %31 = getelementptr inbounds i8, ptr %28, i64 %30
  %32 = load i8, ptr %31, align 1, !tbaa !33
  %33 = sext i8 %32 to i32
  %34 = sub nsw i32 %33, 48
  %35 = load ptr, ptr %5, align 8, !tbaa !26
  %36 = load i32, ptr %4, align 4, !tbaa !8
  %37 = sext i32 %36 to i64
  %38 = getelementptr inbounds i32, ptr %35, i64 %37
  store i32 %34, ptr %38, align 4, !tbaa !8
  br label %39

39:                                               ; preds = %27
  %40 = load i32, ptr %4, align 4, !tbaa !8
  %41 = add nsw i32 %40, 1
  store i32 %41, ptr %4, align 4, !tbaa !8
  br label %16, !llvm.loop !99

42:                                               ; preds = %25
  store i32 0, ptr %4, align 4, !tbaa !8
  br label %43

43:                                               ; preds = %76, %42
  %44 = load i32, ptr %4, align 4, !tbaa !8
  %45 = load ptr, ptr %2, align 8, !tbaa !3
  %46 = getelementptr inbounds nuw %struct.Abc_Ntk_t_, ptr %45, i32 0, i32 11
  %47 = load ptr, ptr %46, align 8, !tbaa !78
  %48 = call i32 @Vec_PtrSize(ptr noundef %47)
  %49 = icmp slt i32 %44, %48
  br i1 %49, label %50, label %54

50:                                               ; preds = %43
  %51 = load ptr, ptr %2, align 8, !tbaa !3
  %52 = load i32, ptr %4, align 4, !tbaa !8
  %53 = call ptr @Abc_NtkBox(ptr noundef %51, i32 noundef %52)
  store ptr %53, ptr %3, align 8, !tbaa !30
  br label %54

54:                                               ; preds = %50, %43
  %55 = phi i1 [ false, %43 ], [ true, %50 ]
  br i1 %55, label %56, label %79

56:                                               ; preds = %54
  %57 = load ptr, ptr %3, align 8, !tbaa !30
  %58 = call i32 @Abc_ObjIsLatch(ptr noundef %57)
  %59 = icmp ne i32 %58, 0
  br i1 %59, label %61, label %60

60:                                               ; preds = %56
  br label %75

61:                                               ; preds = %56
  %62 = load ptr, ptr %3, align 8, !tbaa !30
  %63 = getelementptr inbounds nuw %struct.Abc_Obj_t_, ptr %62, i32 0, i32 6
  %64 = load ptr, ptr %63, align 8, !tbaa !33
  %65 = ptrtoint ptr %64 to i64
  %66 = trunc i64 %65 to i32
  %67 = sub nsw i32 %66, 1
  %68 = load ptr, ptr %5, align 8, !tbaa !26
  %69 = load ptr, ptr %2, align 8, !tbaa !3
  %70 = call i32 @Abc_NtkPiNum(ptr noundef %69)
  %71 = load i32, ptr %4, align 4, !tbaa !8
  %72 = add nsw i32 %70, %71
  %73 = sext i32 %72 to i64
  %74 = getelementptr inbounds i32, ptr %68, i64 %73
  store i32 %67, ptr %74, align 4, !tbaa !8
  br label %75

75:                                               ; preds = %61, %60
  br label %76

76:                                               ; preds = %75
  %77 = load i32, ptr %4, align 4, !tbaa !8
  %78 = add nsw i32 %77, 1
  store i32 %78, ptr %4, align 4, !tbaa !8
  br label %43, !llvm.loop !100

79:                                               ; preds = %54
  %80 = load ptr, ptr %2, align 8, !tbaa !3
  %81 = load ptr, ptr %5, align 8, !tbaa !26
  %82 = call ptr @Abc_NtkVerifySimulatePattern(ptr noundef %80, ptr noundef %81)
  store ptr %82, ptr %7, align 8, !tbaa !26
  %83 = load ptr, ptr %7, align 8, !tbaa !26
  %84 = getelementptr inbounds i32, ptr %83, i64 0
  %85 = load i32, ptr %84, align 4, !tbaa !8
  %86 = call i32 (ptr, ...) @printf(ptr noundef @.str.59, i32 noundef %85)
  %87 = load ptr, ptr %2, align 8, !tbaa !3
  %88 = call i32 @Abc_NtkCiNum(ptr noundef %87)
  %89 = sext i32 %88 to i64
  %90 = mul i64 4, %89
  %91 = call noalias ptr @malloc(i64 noundef %90) #11
  store ptr %91, ptr %6, align 8, !tbaa !26
  store i32 0, ptr %4, align 4, !tbaa !8
  br label %92

92:                                               ; preds = %115, %79
  %93 = load i32, ptr %4, align 4, !tbaa !8
  %94 = load ptr, ptr %2, align 8, !tbaa !3
  %95 = call i32 @Abc_NtkPiNum(ptr noundef %94)
  %96 = icmp slt i32 %93, %95
  br i1 %96, label %97, label %101

97:                                               ; preds = %92
  %98 = load ptr, ptr %2, align 8, !tbaa !3
  %99 = load i32, ptr %4, align 4, !tbaa !8
  %100 = call ptr @Abc_NtkPi(ptr noundef %98, i32 noundef %99)
  store ptr %100, ptr %3, align 8, !tbaa !30
  br label %101

101:                                              ; preds = %97, %92
  %102 = phi i1 [ false, %92 ], [ true, %97 ]
  br i1 %102, label %103, label %118

103:                                              ; preds = %101
  %104 = load ptr, ptr %10, align 8, !tbaa !43
  %105 = load i32, ptr %4, align 4, !tbaa !8
  %106 = sext i32 %105 to i64
  %107 = getelementptr inbounds i8, ptr %104, i64 %106
  %108 = load i8, ptr %107, align 1, !tbaa !33
  %109 = sext i8 %108 to i32
  %110 = sub nsw i32 %109, 48
  %111 = load ptr, ptr %6, align 8, !tbaa !26
  %112 = load i32, ptr %4, align 4, !tbaa !8
  %113 = sext i32 %112 to i64
  %114 = getelementptr inbounds i32, ptr %111, i64 %113
  store i32 %110, ptr %114, align 4, !tbaa !8
  br label %115

115:                                              ; preds = %103
  %116 = load i32, ptr %4, align 4, !tbaa !8
  %117 = add nsw i32 %116, 1
  store i32 %117, ptr %4, align 4, !tbaa !8
  br label %92, !llvm.loop !101

118:                                              ; preds = %101
  store i32 0, ptr %4, align 4, !tbaa !8
  br label %119

119:                                              ; preds = %154, %118
  %120 = load i32, ptr %4, align 4, !tbaa !8
  %121 = load ptr, ptr %2, align 8, !tbaa !3
  %122 = getelementptr inbounds nuw %struct.Abc_Ntk_t_, ptr %121, i32 0, i32 11
  %123 = load ptr, ptr %122, align 8, !tbaa !78
  %124 = call i32 @Vec_PtrSize(ptr noundef %123)
  %125 = icmp slt i32 %120, %124
  br i1 %125, label %126, label %130

126:                                              ; preds = %119
  %127 = load ptr, ptr %2, align 8, !tbaa !3
  %128 = load i32, ptr %4, align 4, !tbaa !8
  %129 = call ptr @Abc_NtkBox(ptr noundef %127, i32 noundef %128)
  store ptr %129, ptr %3, align 8, !tbaa !30
  br label %130

130:                                              ; preds = %126, %119
  %131 = phi i1 [ false, %119 ], [ true, %126 ]
  br i1 %131, label %132, label %157

132:                                              ; preds = %130
  %133 = load ptr, ptr %3, align 8, !tbaa !30
  %134 = call i32 @Abc_ObjIsLatch(ptr noundef %133)
  %135 = icmp ne i32 %134, 0
  br i1 %135, label %137, label %136

136:                                              ; preds = %132
  br label %153

137:                                              ; preds = %132
  %138 = load ptr, ptr %7, align 8, !tbaa !26
  %139 = load ptr, ptr %2, align 8, !tbaa !3
  %140 = call i32 @Abc_NtkPoNum(ptr noundef %139)
  %141 = load i32, ptr %4, align 4, !tbaa !8
  %142 = add nsw i32 %140, %141
  %143 = sext i32 %142 to i64
  %144 = getelementptr inbounds i32, ptr %138, i64 %143
  %145 = load i32, ptr %144, align 4, !tbaa !8
  %146 = load ptr, ptr %6, align 8, !tbaa !26
  %147 = load ptr, ptr %2, align 8, !tbaa !3
  %148 = call i32 @Abc_NtkPiNum(ptr noundef %147)
  %149 = load i32, ptr %4, align 4, !tbaa !8
  %150 = add nsw i32 %148, %149
  %151 = sext i32 %150 to i64
  %152 = getelementptr inbounds i32, ptr %146, i64 %151
  store i32 %145, ptr %152, align 4, !tbaa !8
  br label %153

153:                                              ; preds = %137, %136
  br label %154

154:                                              ; preds = %153
  %155 = load i32, ptr %4, align 4, !tbaa !8
  %156 = add nsw i32 %155, 1
  store i32 %156, ptr %4, align 4, !tbaa !8
  br label %119, !llvm.loop !102

157:                                              ; preds = %130
  %158 = load ptr, ptr %2, align 8, !tbaa !3
  %159 = load ptr, ptr %6, align 8, !tbaa !26
  %160 = call ptr @Abc_NtkVerifySimulatePattern(ptr noundef %158, ptr noundef %159)
  store ptr %160, ptr %8, align 8, !tbaa !26
  %161 = load ptr, ptr %8, align 8, !tbaa !26
  %162 = getelementptr inbounds i32, ptr %161, i64 0
  %163 = load i32, ptr %162, align 4, !tbaa !8
  %164 = call i32 (ptr, ...) @printf(ptr noundef @.str.59, i32 noundef %163)
  %165 = load ptr, ptr %5, align 8, !tbaa !26
  %166 = icmp ne ptr %165, null
  br i1 %166, label %167, label %169

167:                                              ; preds = %157
  %168 = load ptr, ptr %5, align 8, !tbaa !26
  call void @free(ptr noundef %168) #10
  store ptr null, ptr %5, align 8, !tbaa !26
  br label %170

169:                                              ; preds = %157
  br label %170

170:                                              ; preds = %169, %167
  %171 = load ptr, ptr %6, align 8, !tbaa !26
  %172 = icmp ne ptr %171, null
  br i1 %172, label %173, label %175

173:                                              ; preds = %170
  %174 = load ptr, ptr %6, align 8, !tbaa !26
  call void @free(ptr noundef %174) #10
  store ptr null, ptr %6, align 8, !tbaa !26
  br label %176

175:                                              ; preds = %170
  br label %176

176:                                              ; preds = %175, %173
  %177 = load ptr, ptr %7, align 8, !tbaa !26
  %178 = icmp ne ptr %177, null
  br i1 %178, label %179, label %181

179:                                              ; preds = %176
  %180 = load ptr, ptr %7, align 8, !tbaa !26
  call void @free(ptr noundef %180) #10
  store ptr null, ptr %7, align 8, !tbaa !26
  br label %182

181:                                              ; preds = %176
  br label %182

182:                                              ; preds = %181, %179
  %183 = load ptr, ptr %8, align 8, !tbaa !26
  %184 = icmp ne ptr %183, null
  br i1 %184, label %185, label %187

185:                                              ; preds = %182
  %186 = load ptr, ptr %8, align 8, !tbaa !26
  call void @free(ptr noundef %186) #10
  store ptr null, ptr %8, align 8, !tbaa !26
  br label %188

187:                                              ; preds = %182
  br label %188

188:                                              ; preds = %187, %185
  call void @llvm.lifetime.end.p0(i64 8, ptr %10) #10
  call void @llvm.lifetime.end.p0(i64 8, ptr %9) #10
  call void @llvm.lifetime.end.p0(i64 8, ptr %8) #10
  call void @llvm.lifetime.end.p0(i64 8, ptr %7) #10
  call void @llvm.lifetime.end.p0(i64 8, ptr %6) #10
  call void @llvm.lifetime.end.p0(i64 8, ptr %5) #10
  call void @llvm.lifetime.end.p0(i64 4, ptr %4) #10
  call void @llvm.lifetime.end.p0(i64 8, ptr %3) #10
  ret void
}