; Function Attrs: nounwind uwtable
define void @Abc_NtkSimulteBuggyMiter(ptr noundef %0) local_unnamed_addr #0 {
  %2 = getelementptr i8, ptr %0, i64 56
  %.val68 = load ptr, ptr %2, align 8, !tbaa !3
  %3 = getelementptr i8, ptr %.val68, i64 4
  %.val68.val = load i32, ptr %3, align 4, !tbaa !24
  %4 = sext i32 %.val68.val to i64
  %5 = shl nsw i64 %4, 2
  %6 = tail call noalias ptr @malloc(i64 noundef %5) #16
  %7 = getelementptr i8, ptr %0, i64 40
  %.val73 = load ptr, ptr %7, align 8, !tbaa !63
  %8 = getelementptr i8, ptr %.val73, i64 4
  %.val73.val = load i32, ptr %8, align 4, !tbaa !24
  %9 = icmp sgt i32 %.val73.val, 0
  br i1 %9, label %.lr.ph.preheader, label %.critedge.preheader

.lr.ph.preheader:                                 ; preds = %1
  %wide.trip.count = zext nneg i32 %.val73.val to i64
  br label %.lr.ph

.critedge.preheader:                              ; preds = %.lr.ph, %1
  %10 = getelementptr inbounds nuw i8, ptr %0, i64 80
  %11 = load ptr, ptr %10, align 8, !tbaa !79
  %12 = getelementptr i8, ptr %11, i64 4
  %.val66 = load i32, ptr %12, align 4, !tbaa !24
  %13 = icmp sgt i32 %.val66, 0
  br i1 %13, label %.lr.ph85, label %.critedge2

.lr.ph85:                                         ; preds = %.critedge.preheader
  %14 = getelementptr i8, ptr %11, i64 8
  %.val75.val = load ptr, ptr %14, align 8, !tbaa !31
  %15 = sext i32 %.val73.val to i64
  %wide.trip.count95 = zext nneg i32 %.val66 to i64
  %invariant.gep = getelementptr i32, ptr %6, i64 %15
  br label %21

.lr.ph:                                           ; preds = %.lr.ph.preheader, %.lr.ph
  %indvars.iv = phi i64 [ 0, %.lr.ph.preheader ], [ %indvars.iv.next, %.lr.ph ]
  %16 = getelementptr inbounds nuw i8, ptr @.str.57, i64 %indvars.iv
  %17 = load i8, ptr %16, align 1, !tbaa !36
  %18 = sext i8 %17 to i32
  %19 = add nsw i32 %18, -48
  %20 = getelementptr inbounds nuw i32, ptr %6, i64 %indvars.iv
  store i32 %19, ptr %20, align 4, !tbaa !28
  %indvars.iv.next = add nuw nsw i64 %indvars.iv, 1
  %exitcond.not = icmp eq i64 %indvars.iv.next, %wide.trip.count
  br i1 %exitcond.not, label %.critedge.preheader, label %.lr.ph, !llvm.loop !96

21:                                               ; preds = %.lr.ph85, %.critedge
  %indvars.iv92 = phi i64 [ 0, %.lr.ph85 ], [ %indvars.iv.next93, %.critedge ]
  %22 = getelementptr inbounds nuw ptr, ptr %.val75.val, i64 %indvars.iv92
  %23 = load ptr, ptr %22, align 8, !tbaa !32
  %24 = getelementptr i8, ptr %23, i64 20
  %.val77 = load i32, ptr %24, align 4
  %25 = and i32 %.val77, 15
  %.not81 = icmp eq i32 %25, 8
  br i1 %.not81, label %26, label %.critedge

26:                                               ; preds = %21
  %27 = getelementptr inbounds nuw i8, ptr %23, i64 56
  %28 = load ptr, ptr %27, align 8, !tbaa !36
  %29 = ptrtoint ptr %28 to i64
  %30 = trunc i64 %29 to i32
  %31 = add nsw i32 %30, -1
  %gep = getelementptr i32, ptr %invariant.gep, i64 %indvars.iv92
  store i32 %31, ptr %gep, align 4, !tbaa !28
  br label %.critedge

.critedge:                                        ; preds = %26, %21
  %indvars.iv.next93 = add nuw nsw i64 %indvars.iv92, 1
  %exitcond96.not = icmp eq i64 %indvars.iv.next93, %wide.trip.count95
  br i1 %exitcond96.not, label %.critedge2, label %21, !llvm.loop !97

.critedge2:                                       ; preds = %.critedge, %.critedge.preheader
  %32 = tail call ptr @Abc_NtkVerifySimulatePattern(ptr noundef nonnull %0, ptr noundef %6)
  %33 = load i32, ptr %32, align 4, !tbaa !28
  %34 = tail call i32 (ptr, ...) @printf(ptr noundef nonnull dereferenceable(1) @.str.59, i32 noundef %33)
  %.val67 = load ptr, ptr %2, align 8, !tbaa !3
  %35 = getelementptr i8, ptr %.val67, i64 4
  %.val67.val = load i32, ptr %35, align 4, !tbaa !24
  %36 = sext i32 %.val67.val to i64
  %37 = shl nsw i64 %36, 2
  %38 = tail call noalias ptr @malloc(i64 noundef %37) #16
  %.val71 = load ptr, ptr %7, align 8, !tbaa !63
  %39 = getelementptr i8, ptr %.val71, i64 4
  %.val71.val = load i32, ptr %39, align 4, !tbaa !24
  %40 = icmp sgt i32 %.val71.val, 0
  br i1 %40, label %.lr.ph87.preheader, label %.critedge4.preheader

.lr.ph87.preheader:                               ; preds = %.critedge2
  %wide.trip.count100 = zext nneg i32 %.val71.val to i64
  br label %.lr.ph87

.critedge4.preheader:                             ; preds = %.lr.ph87, %.critedge2
  %41 = load ptr, ptr %10, align 8, !tbaa !79
  %42 = getelementptr i8, ptr %41, i64 4
  %.val = load i32, ptr %42, align 4, !tbaa !24
  %43 = icmp sgt i32 %.val, 0
  br i1 %43, label %.lr.ph90, label %.critedge6

.lr.ph90:                                         ; preds = %.critedge4.preheader
  %44 = getelementptr i8, ptr %41, i64 8
  %.val74.val = load ptr, ptr %44, align 8, !tbaa !31
  %45 = getelementptr i8, ptr %0, i64 48
  %46 = sext i32 %.val71.val to i64
  %wide.trip.count105 = zext nneg i32 %.val to i64
  %invariant.gep107 = getelementptr i32, ptr %38, i64 %46
  br label %52

.lr.ph87:                                         ; preds = %.lr.ph87.preheader, %.lr.ph87
  %indvars.iv97 = phi i64 [ 0, %.lr.ph87.preheader ], [ %indvars.iv.next98, %.lr.ph87 ]
  %47 = getelementptr inbounds nuw i8, ptr @.str.58, i64 %indvars.iv97
  %48 = load i8, ptr %47, align 1, !tbaa !36
  %49 = sext i8 %48 to i32
  %50 = add nsw i32 %49, -48
  %51 = getelementptr inbounds nuw i32, ptr %38, i64 %indvars.iv97
  store i32 %50, ptr %51, align 4, !tbaa !28
  %indvars.iv.next98 = add nuw nsw i64 %indvars.iv97, 1
  %exitcond101.not = icmp eq i64 %indvars.iv.next98, %wide.trip.count100
  br i1 %exitcond101.not, label %.critedge4.preheader, label %.lr.ph87, !llvm.loop !98

52:                                               ; preds = %.lr.ph90, %.critedge4
  %indvars.iv102 = phi i64 [ 0, %.lr.ph90 ], [ %indvars.iv.next103, %.critedge4 ]
  %53 = getelementptr inbounds nuw ptr, ptr %.val74.val, i64 %indvars.iv102
  %54 = load ptr, ptr %53, align 8, !tbaa !32
  %55 = getelementptr i8, ptr %54, i64 20
  %.val76 = load i32, ptr %55, align 4
  %56 = and i32 %.val76, 15
  %.not80 = icmp eq i32 %56, 8
  br i1 %.not80, label %57, label %.critedge4

57:                                               ; preds = %52
  %.val69 = load ptr, ptr %45, align 8, !tbaa !60
  %58 = getelementptr i8, ptr %.val69, i64 4
  %.val69.val = load i32, ptr %58, align 4, !tbaa !24
  %59 = sext i32 %.val69.val to i64
  %60 = getelementptr i32, ptr %32, i64 %indvars.iv102
  %61 = getelementptr i32, ptr %60, i64 %59
  %62 = load i32, ptr %61, align 4, !tbaa !28
  %gep108 = getelementptr i32, ptr %invariant.gep107, i64 %indvars.iv102
  store i32 %62, ptr %gep108, align 4, !tbaa !28
  br label %.critedge4

.critedge4:                                       ; preds = %57, %52
  %indvars.iv.next103 = add nuw nsw i64 %indvars.iv102, 1
  %exitcond106.not = icmp eq i64 %indvars.iv.next103, %wide.trip.count105
  br i1 %exitcond106.not, label %.critedge6, label %52, !llvm.loop !99

.critedge6:                                       ; preds = %.critedge4, %.critedge4.preheader
  %63 = tail call ptr @Abc_NtkVerifySimulatePattern(ptr noundef nonnull %0, ptr noundef %38)
  %64 = load i32, ptr %63, align 4, !tbaa !28
  %65 = tail call i32 (ptr, ...) @printf(ptr noundef nonnull dereferenceable(1) @.str.59, i32 noundef %64)
  %.not = icmp eq ptr %6, null
  br i1 %.not, label %67, label %66

66:                                               ; preds = %.critedge6
  tail call void @free(ptr noundef nonnull %6) #15
  br label %67

67:                                               ; preds = %.critedge6, %66
  %.not63 = icmp eq ptr %38, null
  br i1 %.not63, label %69, label %68

68:                                               ; preds = %67
  tail call void @free(ptr noundef nonnull %38) #15
  br label %69

69:                                               ; preds = %68, %67
  tail call void @free(ptr noundef %32) #15
  tail call void @free(ptr noundef nonnull %63) #15
  ret void
}